; ModuleID = '25/1270.cpp'
source_filename = "25/1270.cpp"
target datalayout = "e-m:e-p270:32:32-p271:32:32-p272:64:64-i64:64-f80:128-n8:16:32:64-S128"
target triple = "x86_64-pc-linux-gnu"

%"class.std::ios_base::Init" = type { i8 }
%"class.std::basic_istream" = type { i32 (...)**, i64, %"class.std::basic_ios" }
%"class.std::basic_ios" = type { %"class.std::ios_base", %"class.std::basic_ostream"*, i8, i8, %"class.std::basic_streambuf"*, %"class.std::ctype"*, %"class.std::num_put"*, %"class.std::num_get"* }
%"class.std::ios_base" = type { i32 (...)**, i64, i64, i32, i32, i32, %"struct.std::ios_base::_Callback_list"*, %"struct.std::ios_base::_Words", [8 x %"struct.std::ios_base::_Words"], i32, %"struct.std::ios_base::_Words"*, %"class.std::locale" }
%"struct.std::ios_base::_Callback_list" = type { %"struct.std::ios_base::_Callback_list"*, void (i32, %"class.std::ios_base"*, i32)*, i32, i32 }
%"struct.std::ios_base::_Words" = type { i8*, i64 }
%"class.std::locale" = type { %"class.std::locale::_Impl"* }
%"class.std::locale::_Impl" = type { i32, %"class.std::locale::facet"**, i64, %"class.std::locale::facet"**, i8** }
%"class.std::locale::facet" = type <{ i32 (...)**, i32, [4 x i8] }>
%"class.std::basic_ostream" = type { i32 (...)**, %"class.std::basic_ios" }
%"class.std::basic_streambuf" = type { i32 (...)**, i8*, i8*, i8*, i8*, i8*, i8*, %"class.std::locale" }
%"class.std::ctype" = type <{ %"class.std::locale::facet.base", [4 x i8], %struct.__locale_struct*, i8, [7 x i8], i32*, i32*, i16*, i8, [256 x i8], [256 x i8], i8, [6 x i8] }>
%"class.std::locale::facet.base" = type <{ i32 (...)**, i32 }>
%struct.__locale_struct = type { [13 x %struct.__locale_data*], i16*, i32*, i32*, [13 x i8*] }
%struct.__locale_data = type opaque
%"class.std::num_put" = type { %"class.std::locale::facet.base", [4 x i8] }
%"class.std::num_get" = type { %"class.std::locale::facet.base", [4 x i8] }

@_ZStL8__ioinit = internal global %"class.std::ios_base::Init" zeroinitializer, align 1
@__dso_handle = external hidden global i8
@_ZSt3cin = external dso_local global %"class.std::basic_istream", align 8
@_ZSt4cout = external dso_local global %"class.std::basic_ostream", align 8
@llvm.global_ctors = appending global [1 x { i32, void ()*, i8* }] [{ i32, void ()*, i8* } { i32 65535, void ()* @_GLOBAL__sub_I_1270.cpp, i8* null }]

; Function Attrs: noinline uwtable
define internal void @__cxx_global_var_init() #0 section ".text.startup" {
  call void @_ZNSt8ios_base4InitC1Ev(%"class.std::ios_base::Init"* @_ZStL8__ioinit)
  %1 = call i32 @__cxa_atexit(void (i8*)* bitcast (void (%"class.std::ios_base::Init"*)* @_ZNSt8ios_base4InitD1Ev to void (i8*)*), i8* getelementptr inbounds (%"class.std::ios_base::Init", %"class.std::ios_base::Init"* @_ZStL8__ioinit, i32 0, i32 0), i8* @__dso_handle) #3
  ret void
}

declare dso_local void @_ZNSt8ios_base4InitC1Ev(%"class.std::ios_base::Init"*) unnamed_addr #1

; Function Attrs: nounwind
declare dso_local void @_ZNSt8ios_base4InitD1Ev(%"class.std::ios_base::Init"*) unnamed_addr #2

; Function Attrs: nounwind
declare dso_local i32 @__cxa_atexit(void (i8*)*, i8*, i8*) #3

; Function Attrs: noinline norecurse uwtable
define dso_local i32 @main() #4 {
  %1 = alloca i32, align 4
  %2 = alloca i32, align 4
  %3 = alloca i32, align 4
  %4 = alloca [32 x i32], align 16
  %5 = alloca i32, align 4
  %6 = alloca i32, align 4
  %7 = alloca i32, align 4
  %8 = alloca i32, align 4
  store i32 0, i32* %1, align 4
  store i32 0, i32* %3, align 4
  %9 = bitcast [32 x i32]* %4 to i8*
  call void @llvm.memset.p0i8.i64(i8* align 16 %9, i8 0, i64 128, i1 false)
  %10 = bitcast i8* %9 to <{ i32, i32, [30 x i32] }>*
  %11 = getelementptr inbounds <{ i32, i32, [30 x i32] }>, <{ i32, i32, [30 x i32] }>* %10, i32 0, i32 1
  store i32 1, i32* %11, align 4
  %12 = call dereferenceable(280) %"class.std::basic_istream"* @_ZNSirsERi(%"class.std::basic_istream"* @_ZSt3cin, i32* dereferenceable(4) %2)
  store i32 1, i32* %5, align 4
  br label %13

13:                                               ; preds = %50, %0
  %14 = load i32, i32* %5, align 4
  %15 = load i32, i32* %2, align 4
  %16 = icmp sle i32 %14, %15
  br i1 %16, label %17, label %53

17:                                               ; preds = %13
  store i32 1, i32* %6, align 4
  br label %18

18:                                               ; preds = %46, %17
  %19 = load i32, i32* %6, align 4
  %20 = icmp slt i32 %19, 32
  br i1 %20, label %21, label %49

21:                                               ; preds = %18
  %22 = load i32, i32* %6, align 4
  %23 = sext i32 %22 to i64
  %24 = getelementptr inbounds [32 x i32], [32 x i32]* %4, i64 0, i64 %23
  %25 = load i32, i32* %24, align 4
  %26 = mul nsw i32 %25, 2
  store i32 %26, i32* %24, align 4
  %27 = load i32, i32* %3, align 4
  %28 = load i32, i32* %6, align 4
  %29 = sext i32 %28 to i64
  %30 = getelementptr inbounds [32 x i32], [32 x i32]* %4, i64 0, i64 %29
  %31 = load i32, i32* %30, align 4
  %32 = add nsw i32 %31, %27
  store i32 %32, i32* %30, align 4
  %33 = load i32, i32* %6, align 4
  %34 = sext i32 %33 to i64
  %35 = getelementptr inbounds [32 x i32], [32 x i32]* %4, i64 0, i64 %34
  %36 = load i32, i32* %35, align 4
  %37 = icmp sge i32 %36, 10
  br i1 %37, label %38, label %44

38:                                               ; preds = %21
  %39 = load i32, i32* %6, align 4
  %40 = sext i32 %39 to i64
  %41 = getelementptr inbounds [32 x i32], [32 x i32]* %4, i64 0, i64 %40
  %42 = load i32, i32* %41, align 4
  %43 = sub nsw i32 %42, 10
  store i32 %43, i32* %41, align 4
  store i32 1, i32* %3, align 4
  br label %45

44:                                               ; preds = %21
  store i32 0, i32* %3, align 4
  br label %45

45:                                               ; preds = %44, %38
  br label %46

46:                                               ; preds = %45
  %47 = load i32, i32* %6, align 4
  %48 = add nsw i32 %47, 1
  store i32 %48, i32* %6, align 4
  br label %18

49:                                               ; preds = %18
  br label %50

50:                                               ; preds = %49
  %51 = load i32, i32* %5, align 4
  %52 = add nsw i32 %51, 1
  store i32 %52, i32* %5, align 4
  br label %13

53:                                               ; preds = %13
  store i32 31, i32* %7, align 4
  br label %54

54:                                               ; preds = %60, %53
  %55 = load i32, i32* %7, align 4
  %56 = sext i32 %55 to i64
  %57 = getelementptr inbounds [32 x i32], [32 x i32]* %4, i64 0, i64 %56
  %58 = load i32, i32* %57, align 4
  %59 = icmp eq i32 %58, 0
  br i1 %59, label %60, label %63

60:                                               ; preds = %54
  %61 = load i32, i32* %7, align 4
  %62 = add nsw i32 %61, -1
  store i32 %62, i32* %7, align 4
  br label %54

63:                                               ; preds = %54
  %64 = load i32, i32* %7, align 4
  store i32 %64, i32* %8, align 4
  br label %65

65:                                               ; preds = %74, %63
  %66 = load i32, i32* %8, align 4
  %67 = icmp sge i32 %66, 1
  br i1 %67, label %68, label %77

68:                                               ; preds = %65
  %69 = load i32, i32* %8, align 4
  %70 = sext i32 %69 to i64
  %71 = getelementptr inbounds [32 x i32], [32 x i32]* %4, i64 0, i64 %70
  %72 = load i32, i32* %71, align 4
  %73 = call dereferenceable(272) %"class.std::basic_ostream"* @_ZNSolsEi(%"class.std::basic_ostream"* @_ZSt4cout, i32 %72)
  br label %74

74:                                               ; preds = %68
  %75 = load i32, i32* %8, align 4
  %76 = add nsw i32 %75, -1
  store i32 %76, i32* %8, align 4
  br label %65

77:                                               ; preds = %65
  %78 = call dereferenceable(272) %"class.std::basic_ostream"* @_ZNSolsEPFRSoS_E(%"class.std::basic_ostream"* @_ZSt4cout, %"class.std::basic_ostream"* (%"class.std::basic_ostream"*)* @_ZSt4endlIcSt11char_traitsIcEERSt13basic_ostreamIT_T0_ES6_)
  ret i32 0
}

; Function Attrs: argmemonly nounwind willreturn
declare void @llvm.memset.p0i8.i64(i8* nocapture writeonly, i8, i64, i1 immarg) #5

declare dso_local dereferenceable(280) %"class.std::basic_istream"* @_ZNSirsERi(%"class.std::basic_istream"*, i32* dereferenceable(4)) #1

declare dso_local dereferenceable(272) %"class.std::basic_ostream"* @_ZNSolsEi(%"class.std::basic_ostream"*, i32) #1

declare dso_local dereferenceable(272) %"class.std::basic_ostream"* @_ZNSolsEPFRSoS_E(%"class.std::basic_ostream"*, %"class.std::basic_ostream"* (%"class.std::basic_ostream"*)*) #1

declare dso_local dereferenceable(272) %"class.std::basic_ostream"* @_ZSt4endlIcSt11char_traitsIcEERSt13basic_ostreamIT_T0_ES6_(%"class.std::basic_ostream"* dereferenceable(272)) #1

; Function Attrs: noinline uwtable
define internal void @_GLOBAL__sub_I_1270.cpp() #0 section ".text.startup" {
  call void @__cxx_global_var_init()
  ret void
}


!llvm.module.flags = !{!0}
!llvm.ident = !{!1}

!0 = !{i32 1, !"wchar_size", i32 4}
!1 = !{!"clang version 10.0.0-4ubuntu1 "}
